#include <math.h>
#include <stdio.h>
#include <stdlib.h>
#include <string.h>

int main()
{
 int m,n;
 int fenzi,fenmu,e;
 double s=0;
 scanf("%d",&m);
 for(int i=1;i<=m;i++)
 {
  fenmu=1;
  fenzi=2;
  scanf("%d",&n);
  s=0;
  for(int j=1;j<=n;j++)
  {
   s+=(double)fenzi/fenmu;
   e=fenzi;
   fenzi=fenzi+fenmu;
   fenmu=e;
  }
  printf("%.3lf\n",s);
 }
 return 0;
}